target datalayout = "e-m:e-p270:32:32-p271:32:32-p272:64:64-i64:64-i128:128-f80:128-n8:16:32:64-S128"
target triple = "x86_64-pc-linux-gnu"

%"class.icu_77::number::Notation" = type { i32, %"union.icu_77::number::Notation::NotationUnion" }
%"union.icu_77::number::Notation::NotationUnion" = type { %"struct.icu_77::number::Notation::NotationUnion::ScientificSettings" }
%"struct.icu_77::number::Notation::NotationUnion::ScientificSettings" = type { i8, i8, i16, i32 }
%"class.icu_77::number::ScientificNotation" = type { %"class.icu_77::number::Notation" }

; Function Attrs: mustprogress uwtable
define { i64, i32 } @_ZN6icu_776number4impl14stem_to_object8notationENS1_8skeleton8StemEnumE(i32 noundef %0) #1 {
  %2 = alloca %"class.icu_77::number::Notation", align 4
  %3 = alloca i32, align 4
  %4 = alloca { i64, i32 }, align 8
  %5 = alloca { i64, i32 }, align 8
  %6 = alloca %"class.icu_77::number::ScientificNotation", align 4
  %7 = alloca { i64, i32 }, align 8
  %8 = alloca %"class.icu_77::number::ScientificNotation", align 4
  %9 = alloca { i64, i32 }, align 8
  %10 = alloca { i64, i32 }, align 8
  %11 = alloca { i64, i32 }, align 8
  store i32 %0, ptr %3, align 4, !tbaa !23
  %12 = load i32, ptr %3, align 4, !tbaa !23
  switch i32 %12, label %25 [
    i32 0, label %13
    i32 1, label %15
    i32 2, label %17
    i32 3, label %20
    i32 4, label %23
  ]

13:                                               ; preds = %1
  %14 = call { i64, i32 } @_ZN6icu_776number8Notation12compactShortEv()
  store { i64, i32 } %14, ptr %4, align 8
  call void @llvm.memcpy.p0.p0.i64(ptr align 4 %2, ptr align 8 %4, i64 12, i1 false)
  br label %26

15:                                               ; preds = %1
  %16 = call { i64, i32 } @_ZN6icu_776number8Notation11compactLongEv()
  store { i64, i32 } %16, ptr %5, align 8
  call void @llvm.memcpy.p0.p0.i64(ptr align 4 %2, ptr align 8 %5, i64 12, i1 false)
  br label %26

17:                                               ; preds = %1
  call void @llvm.lifetime.start.p0(i64 12, ptr %6) #14
  %18 = call { i64, i32 } @_ZN6icu_776number8Notation10scientificEv()
  %19 = getelementptr inbounds nuw %"class.icu_77::number::ScientificNotation", ptr %6, i32 0, i32 0
  store { i64, i32 } %18, ptr %7, align 8
  call void @llvm.memcpy.p0.p0.i64(ptr align 4 %19, ptr align 8 %7, i64 12, i1 false)
  call void @llvm.memcpy.p0.p0.i64(ptr align 4 %2, ptr align 4 %6, i64 12, i1 false)
  call void @llvm.lifetime.end.p0(i64 12, ptr %6) #14
  br label %26

20:                                               ; preds = %1
  call void @llvm.lifetime.start.p0(i64 12, ptr %8) #14
  %21 = call { i64, i32 } @_ZN6icu_776number8Notation11engineeringEv()
  %22 = getelementptr inbounds nuw %"class.icu_77::number::ScientificNotation", ptr %8, i32 0, i32 0
  store { i64, i32 } %21, ptr %9, align 8
  call void @llvm.memcpy.p0.p0.i64(ptr align 4 %22, ptr align 8 %9, i64 12, i1 false)
  call void @llvm.memcpy.p0.p0.i64(ptr align 4 %2, ptr align 4 %8, i64 12, i1 false)
  call void @llvm.lifetime.end.p0(i64 12, ptr %8) #14
  br label %26

23:                                               ; preds = %1
  %24 = call { i64, i32 } @_ZN6icu_776number8Notation6simpleEv()
  store { i64, i32 } %24, ptr %10, align 8
  call void @llvm.memcpy.p0.p0.i64(ptr align 4 %2, ptr align 8 %10, i64 12, i1 false)
  br label %26

25:                                               ; preds = %1
  call void @abort() #16
  unreachable

26:                                               ; preds = %23, %20, %17, %15, %13
  call void @llvm.memcpy.p0.p0.i64(ptr align 8 %11, ptr align 4 %2, i64 12, i1 false)
  %27 = load { i64, i32 }, ptr %11, align 8
  ret { i64, i32 } %27
}