; Function Attrs: mustprogress uwtable
define { i64, i32 } @_ZN6icu_776number4impl14stem_to_object8notationENS1_8skeleton8StemEnumE(i32 noundef %0) local_unnamed_addr #1 {
  switch i32 %0, label %12 [
    i32 0, label %2
    i32 1, label %4
    i32 2, label %6
    i32 3, label %8
    i32 4, label %10
  ]

2:                                                ; preds = %1
  %3 = tail call { i64, i32 } @_ZN6icu_776number8Notation12compactShortEv()
  br label %13

4:                                                ; preds = %1
  %5 = tail call { i64, i32 } @_ZN6icu_776number8Notation11compactLongEv()
  br label %13

6:                                                ; preds = %1
  %7 = tail call { i64, i32 } @_ZN6icu_776number8Notation10scientificEv()
  br label %13

8:                                                ; preds = %1
  %9 = tail call { i64, i32 } @_ZN6icu_776number8Notation11engineeringEv()
  br label %13

10:                                               ; preds = %1
  %11 = tail call { i64, i32 } @_ZN6icu_776number8Notation6simpleEv()
  br label %13

12:                                               ; preds = %1
  tail call void @abort() #20
  unreachable

13:                                               ; preds = %10, %8, %6, %4, %2
  %.pn = phi { i64, i32 } [ %11, %10 ], [ %9, %8 ], [ %7, %6 ], [ %5, %4 ], [ %3, %2 ]
  ret { i64, i32 } %.pn
}